; Function Attrs: mustprogress uwtable
define void @_ZN7rocksdb12AllocTracker8AllocateEm(ptr noundef nonnull align 8 captures(none) dereferenceable(18) %0, i64 noundef %1) local_unnamed_addr #2 align 2 personality ptr @__gxx_personality_v0 {
  %3 = load ptr, ptr %0, align 8, !tbaa !4
  %4 = load atomic i64, ptr %3 monotonic, align 8
  %.not = icmp eq i64 %4, 0
  br i1 %.not, label %5, label %8

5:                                                ; preds = %2
  %6 = getelementptr inbounds nuw i8, ptr %3, i64 32
  %7 = load ptr, ptr %6, align 8, !tbaa !19
  %.not2 = icmp eq ptr %7, null
  br i1 %.not2, label %11, label %8

8:                                                ; preds = %5, %2
  %9 = getelementptr inbounds nuw i8, ptr %0, i64 8
  %10 = atomicrmw add ptr %9, i64 %1 monotonic, align 8
  tail call void @_ZN7rocksdb18WriteBufferManager10ReserveMemEm(ptr noundef nonnull align 8 dereferenceable(160) %3, i64 noundef %1)
  br label %11

11:                                               ; preds = %8, %5
  ret void
}